target datalayout = "e-m:e-p270:32:32-p271:32:32-p272:64:64-i64:64-i128:128-f80:128-n8:16:32:64-S128"
target triple = "x86_64-pc-linux-gnu"

%struct.H5FL_reg_head_t = type { i8, i32, i32, ptr, i64, ptr }
%struct.H5O_token_t = type { [16 x i8] }
%struct.H5O_loc_t = type { ptr, i64, i8 }
%struct.H5G_loc_t = type { ptr, ptr }
%struct.H5G_name_t = type { ptr, ptr, i32 }
%struct.H5O_info2_t = type { i64, %struct.H5O_token_t, i32, i32, i64, i64, i64, i64, i64 }
%struct.H5O_iter_visit_ud_t = type { i64, ptr, ptr, ptr, ptr, i32 }
%struct.H5_obj_t = type { i64, i64 }
%struct.H5L_info2_t = type { i32, i8, i64, i32, %union.anon }
%union.anon = type { i64, [8 x i8] }

@.str.4 = private unnamed_addr constant [100 x i8] c"generated/home/dtcxzyw/WorkSpace/Projects/compilers/llvm-opt-benchmark/bench/hdf5/hdf5/src/H5Oint.c\00", align 1
@H5E_OHDR_g = external global i64, align 8
@H5E_NOSPACE_g = external global i64, align 8
@H5E_CANTGET_g = external global i64, align 8
@H5E_CANTINSERT_g = external global i64, align 8
@H5E_NOTFOUND_g = external global i64, align 8
@.str.23 = private unnamed_addr constant [17 x i8] c"object not found\00", align 1
@H5E_CANTRELEASE_g = external global i64, align 8
@.str.25 = private unnamed_addr constant [20 x i8] c"can't free location\00", align 1
@.str.78 = private unnamed_addr constant [26 x i8] c"unable to get object info\00", align 1
@H5_H5_obj_t_reg_free_list = external global %struct.H5FL_reg_head_t, align 8
@.str.84 = private unnamed_addr constant [27 x i8] c"can't allocate object node\00", align 1
@.str.86 = private unnamed_addr constant [43 x i8] c"can't insert object node into visited list\00", align 1
@__func__.H5O__visit_cb = private unnamed_addr constant [14 x i8] c"H5O__visit_cb\00", align 1

; Function Attrs: nounwind uwtable
define internal i32 @H5O__visit_cb(i64 noundef %0, ptr noundef %1, ptr noundef %2, ptr noundef %3) #0 {
  %5 = alloca i64, align 8
  %6 = alloca ptr, align 8
  %7 = alloca ptr, align 8
  %8 = alloca ptr, align 8
  %9 = alloca ptr, align 8
  %10 = alloca %struct.H5G_loc_t, align 8
  %11 = alloca %struct.H5G_name_t, align 8
  %12 = alloca %struct.H5O_loc_t, align 8
  %13 = alloca i8, align 1
  %14 = alloca i32, align 4
  %15 = alloca i8, align 1
  %16 = alloca %struct.H5_obj_t, align 8
  %17 = alloca %struct.H5O_info2_t, align 8
  %18 = alloca ptr, align 8
  store i64 %0, ptr %5, align 8
  store ptr %1, ptr %6, align 8
  store ptr %2, ptr %7, align 8
  store ptr %3, ptr %8, align 8
  %19 = load ptr, ptr %8, align 8
  store ptr %19, ptr %9, align 8
  store i8 0, ptr %13, align 1
  store i32 0, ptr %14, align 4
  store i8 0, ptr %15, align 1
  %20 = load ptr, ptr %7, align 8
  %21 = getelementptr inbounds %struct.H5L_info2_t, ptr %20, i32 0, i32 0
  %22 = load i32, ptr %21, align 8
  %23 = icmp eq i32 %22, 0
  br i1 %23, label %24, label %147

24:                                               ; preds = %4
  %25 = getelementptr inbounds %struct.H5G_loc_t, ptr %10, i32 0, i32 0
  store ptr %12, ptr %25, align 8
  %26 = getelementptr inbounds %struct.H5G_loc_t, ptr %10, i32 0, i32 1
  store ptr %11, ptr %26, align 8
  %27 = call i32 @H5G_loc_reset(ptr noundef %10)
  %28 = load ptr, ptr %9, align 8
  %29 = getelementptr inbounds %struct.H5O_iter_visit_ud_t, ptr %28, i32 0, i32 1
  %30 = load ptr, ptr %29, align 8
  %31 = load ptr, ptr %6, align 8
  %32 = call i32 @H5G_loc_find(ptr noundef %30, ptr noundef %31, ptr noundef %10)
  %33 = icmp slt i32 %32, 0
  br i1 %33, label %34, label %49

34:                                               ; preds = %24
  br label %35

35:                                               ; preds = %34
  br label %36

36:                                               ; preds = %35
  br label %37

37:                                               ; preds = %36
  %38 = load i64, ptr @H5E_OHDR_g, align 8
  %39 = load i64, ptr @H5E_NOTFOUND_g, align 8
  %40 = call i32 (ptr, ptr, i32, i64, i64, ptr, ...) @H5E_printf_stack(ptr noundef @.str.4, ptr noundef @__func__.H5O__visit_cb, i32 noundef 2529, i64 noundef %38, i64 noundef %39, ptr noundef @.str.23)
  br label %41

41:                                               ; preds = %37
  store i8 1, ptr %15, align 1
  %42 = load i8, ptr %15, align 1
  %43 = trunc i8 %42 to i1
  %44 = zext i1 %43 to i8
  store i8 %44, ptr %15, align 1
  br label %45

45:                                               ; preds = %41
  br label %46

46:                                               ; preds = %45
  store i32 -1, ptr %14, align 4
  br label %148

47:                                               ; No predecessors!
  br label %48

48:                                               ; preds = %47
  br label %49

49:                                               ; preds = %48, %24
  store i8 1, ptr %13, align 1
  %50 = getelementptr inbounds %struct.H5O_loc_t, ptr %12, i32 0, i32 0
  %51 = load ptr, ptr %50, align 8
  %52 = getelementptr inbounds %struct.H5_obj_t, ptr %16, i32 0, i32 0
  %53 = call i32 @H5F_get_fileno(ptr noundef %51, ptr noundef %52)
  %54 = getelementptr inbounds %struct.H5O_loc_t, ptr %12, i32 0, i32 1
  %55 = load i64, ptr %54, align 8
  %56 = getelementptr inbounds %struct.H5_obj_t, ptr %16, i32 0, i32 1
  store i64 %55, ptr %56, align 8
  %57 = load ptr, ptr %9, align 8
  %58 = getelementptr inbounds %struct.H5O_iter_visit_ud_t, ptr %57, i32 0, i32 2
  %59 = load ptr, ptr %58, align 8
  %60 = call ptr @H5SL_search(ptr noundef %59, ptr noundef %16)
  %61 = icmp eq ptr null, %60
  br i1 %61, label %62, label %146

62:                                               ; preds = %49
  %63 = load ptr, ptr %9, align 8
  %64 = getelementptr inbounds %struct.H5O_iter_visit_ud_t, ptr %63, i32 0, i32 5
  %65 = load i32, ptr %64, align 8
  %66 = call i32 @H5O_get_info(ptr noundef %12, ptr noundef %17, i32 noundef %65)
  %67 = icmp slt i32 %66, 0
  br i1 %67, label %68, label %83

68:                                               ; preds = %62
  br label %69

69:                                               ; preds = %68
  br label %70

70:                                               ; preds = %69
  br label %71

71:                                               ; preds = %70
  %72 = load i64, ptr @H5E_OHDR_g, align 8
  %73 = load i64, ptr @H5E_CANTGET_g, align 8
  %74 = call i32 (ptr, ptr, i32, i64, i64, ptr, ...) @H5E_printf_stack(ptr noundef @.str.4, ptr noundef @__func__.H5O__visit_cb, i32 noundef 2542, i64 noundef %72, i64 noundef %73, ptr noundef @.str.78)
  br label %75

75:                                               ; preds = %71
  store i8 1, ptr %15, align 1
  %76 = load i8, ptr %15, align 1
  %77 = trunc i8 %76 to i1
  %78 = zext i1 %77 to i8
  store i8 %78, ptr %15, align 1
  br label %79

79:                                               ; preds = %75
  br label %80

80:                                               ; preds = %79
  store i32 -1, ptr %14, align 4
  br label %148

81:                                               ; No predecessors!
  br label %82

82:                                               ; preds = %81
  br label %83

83:                                               ; preds = %82, %62
  %84 = load ptr, ptr %9, align 8
  %85 = getelementptr inbounds %struct.H5O_iter_visit_ud_t, ptr %84, i32 0, i32 3
  %86 = load ptr, ptr %85, align 8
  %87 = load ptr, ptr %9, align 8
  %88 = getelementptr inbounds %struct.H5O_iter_visit_ud_t, ptr %87, i32 0, i32 0
  %89 = load i64, ptr %88, align 8
  %90 = load ptr, ptr %6, align 8
  %91 = load ptr, ptr %9, align 8
  %92 = getelementptr inbounds %struct.H5O_iter_visit_ud_t, ptr %91, i32 0, i32 4
  %93 = load ptr, ptr %92, align 8
  %94 = call i32 %86(i64 noundef %89, ptr noundef %90, ptr noundef %17, ptr noundef %93)
  store i32 %94, ptr %14, align 4
  %95 = load i32, ptr %14, align 4
  %96 = icmp eq i32 %95, 0
  br i1 %96, label %97, label %145

97:                                               ; preds = %83
  %98 = getelementptr inbounds %struct.H5O_info2_t, ptr %17, i32 0, i32 3
  %99 = load i32, ptr %98, align 4
  %100 = icmp ugt i32 %99, 1
  br i1 %100, label %101, label %144

101:                                              ; preds = %97
  %102 = call noalias ptr @H5FL_reg_malloc(ptr noundef @H5_H5_obj_t_reg_free_list)
  store ptr %102, ptr %18, align 8
  %103 = icmp eq ptr %102, null
  br i1 %103, label %104, label %119

104:                                              ; preds = %101
  br label %105

105:                                              ; preds = %104
  br label %106

106:                                              ; preds = %105
  br label %107

107:                                              ; preds = %106
  %108 = load i64, ptr @H5E_OHDR_g, align 8
  %109 = load i64, ptr @H5E_NOSPACE_g, align 8
  %110 = call i32 (ptr, ptr, i32, i64, i64, ptr, ...) @H5E_printf_stack(ptr noundef @.str.4, ptr noundef @__func__.H5O__visit_cb, i32 noundef 2556, i64 noundef %108, i64 noundef %109, ptr noundef @.str.84)
  br label %111

111:                                              ; preds = %107
  store i8 1, ptr %15, align 1
  %112 = load i8, ptr %15, align 1
  %113 = trunc i8 %112 to i1
  %114 = zext i1 %113 to i8
  store i8 %114, ptr %15, align 1
  br label %115

115:                                              ; preds = %111
  br label %116

116:                                              ; preds = %115
  store i32 -1, ptr %14, align 4
  br label %148

117:                                              ; No predecessors!
  br label %118

118:                                              ; preds = %117
  br label %119

119:                                              ; preds = %118, %101
  %120 = load ptr, ptr %18, align 8
  call void @llvm.memcpy.p0.p0.i64(ptr align 8 %120, ptr align 8 %16, i64 16, i1 false)
  %121 = load ptr, ptr %9, align 8
  %122 = getelementptr inbounds %struct.H5O_iter_visit_ud_t, ptr %121, i32 0, i32 2
  %123 = load ptr, ptr %122, align 8
  %124 = load ptr, ptr %18, align 8
  %125 = load ptr, ptr %18, align 8
  %126 = call i32 @H5SL_insert(ptr noundef %123, ptr noundef %124, ptr noundef %125)
  %127 = icmp slt i32 %126, 0
  br i1 %127, label %128, label %143

128:                                              ; preds = %119
  br label %129

129:                                              ; preds = %128
  br label %130

130:                                              ; preds = %129
  br label %131

131:                                              ; preds = %130
  %132 = load i64, ptr @H5E_OHDR_g, align 8
  %133 = load i64, ptr @H5E_CANTINSERT_g, align 8
  %134 = call i32 (ptr, ptr, i32, i64, i64, ptr, ...) @H5E_printf_stack(ptr noundef @.str.4, ptr noundef @__func__.H5O__visit_cb, i32 noundef 2564, i64 noundef %132, i64 noundef %133, ptr noundef @.str.86)
  br label %135

135:                                              ; preds = %131
  store i8 1, ptr %15, align 1
  %136 = load i8, ptr %15, align 1
  %137 = trunc i8 %136 to i1
  %138 = zext i1 %137 to i8
  store i8 %138, ptr %15, align 1
  br label %139

139:                                              ; preds = %135
  br label %140

140:                                              ; preds = %139
  store i32 -1, ptr %14, align 4
  br label %148

141:                                              ; No predecessors!
  br label %142

142:                                              ; preds = %141
  br label %143

143:                                              ; preds = %142, %119
  br label %144

144:                                              ; preds = %143, %97
  br label %145

145:                                              ; preds = %144, %83
  br label %146

146:                                              ; preds = %145, %49
  br label %147

147:                                              ; preds = %146, %4
  br label %148

148:                                              ; preds = %147, %140, %116, %80, %46
  %149 = load i8, ptr %13, align 1
  %150 = trunc i8 %149 to i1
  br i1 %150, label %151, label %167

151:                                              ; preds = %148
  %152 = call i32 @H5G_loc_free(ptr noundef %10)
  %153 = icmp slt i32 %152, 0
  br i1 %153, label %154, label %167

154:                                              ; preds = %151
  br label %155

155:                                              ; preds = %154
  br label %156

156:                                              ; preds = %155
  br label %157

157:                                              ; preds = %156
  %158 = load i64, ptr @H5E_OHDR_g, align 8
  %159 = load i64, ptr @H5E_CANTRELEASE_g, align 8
  %160 = call i32 (ptr, ptr, i32, i64, i64, ptr, ...) @H5E_printf_stack(ptr noundef @.str.4, ptr noundef @__func__.H5O__visit_cb, i32 noundef 2573, i64 noundef %158, i64 noundef %159, ptr noundef @.str.25)
  br label %161

161:                                              ; preds = %157
  store i8 1, ptr %15, align 1
  %162 = load i8, ptr %15, align 1
  %163 = trunc i8 %162 to i1
  %164 = zext i1 %163 to i8
  store i8 %164, ptr %15, align 1
  br label %165

165:                                              ; preds = %161
  store i32 -1, ptr %14, align 4
  br label %166

166:                                              ; preds = %165
  br label %167

167:                                              ; preds = %166, %151, %148
  %168 = load i32, ptr %14, align 4
  ret i32 %168
}