; Function Attrs: nounwind uwtable
define internal i32 @H5O__visit_cb(i64 %0, ptr noundef %1, ptr nocapture noundef readonly %2, ptr nocapture noundef readonly %3) #1 {
  %5 = alloca %struct.H5G_loc_t, align 8
  %6 = alloca %struct.H5G_name_t, align 8
  %7 = alloca %struct.H5O_loc_t, align 8
  %8 = alloca %struct.H5_obj_t, align 8
  %9 = alloca %struct.H5O_info2_t, align 8
  %10 = load i32, ptr %2, align 8
  %11 = icmp eq i32 %10, 0
  br i1 %11, label %12, label %75

12:                                               ; preds = %4
  store ptr %7, ptr %5, align 8
  %13 = getelementptr inbounds i8, ptr %5, i64 8
  store ptr %6, ptr %13, align 8
  %14 = call i32 @H5G_loc_reset(ptr noundef nonnull %5) #11
  %15 = getelementptr inbounds i8, ptr %3, i64 8
  %16 = load ptr, ptr %15, align 8
  %17 = call i32 @H5G_loc_find(ptr noundef %16, ptr noundef %1, ptr noundef nonnull %5) #11
  %18 = icmp slt i32 %17, 0
  br i1 %18, label %19, label %23

19:                                               ; preds = %12
  %20 = load i64, ptr @H5E_OHDR_g, align 8
  %21 = load i64, ptr @H5E_NOTFOUND_g, align 8
  %22 = call i32 (ptr, ptr, i32, i64, i64, ptr, ...) @H5E_printf_stack(ptr noundef nonnull @.str.4, ptr noundef nonnull @__func__.H5O__visit_cb, i32 noundef 2529, i64 noundef %20, i64 noundef %21, ptr noundef nonnull @.str.23) #11
  br label %75

23:                                               ; preds = %12
  %24 = load ptr, ptr %7, align 8
  %25 = call i32 @H5F_get_fileno(ptr noundef %24, ptr noundef nonnull %8) #11
  %26 = getelementptr inbounds i8, ptr %7, i64 8
  %27 = load i64, ptr %26, align 8
  %28 = getelementptr inbounds i8, ptr %8, i64 8
  store i64 %27, ptr %28, align 8
  %29 = getelementptr inbounds i8, ptr %3, i64 16
  %30 = load ptr, ptr %29, align 8
  %31 = call ptr @H5SL_search(ptr noundef %30, ptr noundef nonnull %8) #11
  %32 = icmp eq ptr %31, null
  br i1 %32, label %33, label %68

33:                                               ; preds = %23
  %34 = getelementptr inbounds i8, ptr %3, i64 40
  %35 = load i32, ptr %34, align 8
  %36 = call i32 @H5O_get_info(ptr noundef nonnull %7, ptr noundef nonnull %9, i32 noundef %35)
  %37 = icmp slt i32 %36, 0
  br i1 %37, label %38, label %42

38:                                               ; preds = %33
  %39 = load i64, ptr @H5E_OHDR_g, align 8
  %40 = load i64, ptr @H5E_CANTGET_g, align 8
  %41 = call i32 (ptr, ptr, i32, i64, i64, ptr, ...) @H5E_printf_stack(ptr noundef nonnull @.str.4, ptr noundef nonnull @__func__.H5O__visit_cb, i32 noundef 2542, i64 noundef %39, i64 noundef %40, ptr noundef nonnull @.str.78) #11
  br label %68

42:                                               ; preds = %33
  %43 = getelementptr inbounds i8, ptr %3, i64 24
  %44 = load ptr, ptr %43, align 8
  %45 = load i64, ptr %3, align 8
  %46 = getelementptr inbounds i8, ptr %3, i64 32
  %47 = load ptr, ptr %46, align 8
  %48 = call i32 %44(i64 noundef %45, ptr noundef %1, ptr noundef nonnull %9, ptr noundef %47) #11
  %49 = icmp eq i32 %48, 0
  %50 = getelementptr inbounds i8, ptr %9, i64 28
  %51 = load i32, ptr %50, align 4
  %52 = icmp ugt i32 %51, 1
  %or.cond = select i1 %49, i1 %52, i1 false
  br i1 %or.cond, label %53, label %68

53:                                               ; preds = %42
  %54 = call noalias ptr @H5FL_reg_malloc(ptr noundef nonnull @H5_H5_obj_t_reg_free_list) #11
  %55 = icmp eq ptr %54, null
  br i1 %55, label %56, label %60

56:                                               ; preds = %53
  %57 = load i64, ptr @H5E_OHDR_g, align 8
  %58 = load i64, ptr @H5E_NOSPACE_g, align 8
  %59 = call i32 (ptr, ptr, i32, i64, i64, ptr, ...) @H5E_printf_stack(ptr noundef nonnull @.str.4, ptr noundef nonnull @__func__.H5O__visit_cb, i32 noundef 2556, i64 noundef %57, i64 noundef %58, ptr noundef nonnull @.str.84) #11
  br label %68

60:                                               ; preds = %53
  call void @llvm.memcpy.p0.p0.i64(ptr noundef nonnull align 8 dereferenceable(16) %54, ptr noundef nonnull align 8 dereferenceable(16) %8, i64 16, i1 false)
  %61 = load ptr, ptr %29, align 8
  %62 = call i32 @H5SL_insert(ptr noundef %61, ptr noundef nonnull %54, ptr noundef nonnull %54) #11
  %63 = icmp slt i32 %62, 0
  br i1 %63, label %64, label %68

64:                                               ; preds = %60
  %65 = load i64, ptr @H5E_OHDR_g, align 8
  %66 = load i64, ptr @H5E_CANTINSERT_g, align 8
  %67 = call i32 (ptr, ptr, i32, i64, i64, ptr, ...) @H5E_printf_stack(ptr noundef nonnull @.str.4, ptr noundef nonnull @__func__.H5O__visit_cb, i32 noundef 2564, i64 noundef %65, i64 noundef %66, ptr noundef nonnull @.str.86) #11
  br label %68

68:                                               ; preds = %38, %56, %64, %60, %42, %23
  %.023.ph = phi i32 [ 0, %23 ], [ %48, %42 ], [ 0, %60 ], [ -1, %64 ], [ -1, %56 ], [ -1, %38 ]
  %69 = call i32 @H5G_loc_free(ptr noundef nonnull %5) #11
  %70 = icmp slt i32 %69, 0
  br i1 %70, label %71, label %75

71:                                               ; preds = %68
  %72 = load i64, ptr @H5E_OHDR_g, align 8
  %73 = load i64, ptr @H5E_CANTRELEASE_g, align 8
  %74 = call i32 (ptr, ptr, i32, i64, i64, ptr, ...) @H5E_printf_stack(ptr noundef nonnull @.str.4, ptr noundef nonnull @__func__.H5O__visit_cb, i32 noundef 2573, i64 noundef %72, i64 noundef %73, ptr noundef nonnull @.str.25) #11
  br label %75

75:                                               ; preds = %19, %4, %71, %68
  %.1 = phi i32 [ -1, %71 ], [ %.023.ph, %68 ], [ -1, %19 ], [ 0, %4 ]
  ret i32 %.1
}